; Function Attrs: mustprogress uwtable
define noundef double @_ZNK8QuantLib28AnalyticComplexChooserEngine12riskFreeRateEd(ptr nocapture noundef nonnull readonly align 8 dereferenceable(408) %this, double noundef %t) local_unnamed_addr #7 align 2 personality ptr @__gxx_personality_v0 {
entry:
  %ref.tmp = alloca %"class.QuantLib::InterestRate", align 8
  call void @llvm.lifetime.start.p0(i64 40, ptr nonnull %ref.tmp) #25
  %process_ = getelementptr inbounds nuw i8, ptr %this, i64 392
  %0 = load ptr, ptr %process_, align 8, !tbaa !39
  %cmp.not.i = icmp eq ptr %0, null
  br i1 %cmp.not.i, label %cond.false.i, label %_ZNK5boost10shared_ptrIN8QuantLib30GeneralizedBlackScholesProcessEEptEv.exit, !prof !46

cond.false.i:                                     ; preds = %entry
  tail call void @_ZN5boost16assertion_failedEPKcS1_S1_l(ptr noundef nonnull @.str.9, ptr noundef nonnull @__PRETTY_FUNCTION__._ZNK5boost10shared_ptrIN8QuantLib30GeneralizedBlackScholesProcessEEptEv, ptr noundef nonnull @.str.10, i64 noundef 784)
  %.pre.i = load ptr, ptr %process_, align 8, !tbaa !39
  br label %_ZNK5boost10shared_ptrIN8QuantLib30GeneralizedBlackScholesProcessEEptEv.exit

_ZNK5boost10shared_ptrIN8QuantLib30GeneralizedBlackScholesProcessEEptEv.exit: ; preds = %entry, %cond.false.i
  %1 = phi ptr [ %0, %entry ], [ %.pre.i, %cond.false.i ]
  %call2 = tail call noundef nonnull align 8 dereferenceable(16) ptr @_ZNK8QuantLib30GeneralizedBlackScholesProcess12riskFreeRateEv(ptr noundef nonnull align 8 dereferenceable(250) %1)
  %call3 = tail call noundef nonnull align 8 dereferenceable(16) ptr @_ZNK8QuantLib6HandleINS_18YieldTermStructureEEptEv(ptr noundef nonnull align 8 dereferenceable(16) %call2)
  %2 = load ptr, ptr %call3, align 8, !tbaa !81
  %cmp.not.i1 = icmp eq ptr %2, null
  br i1 %cmp.not.i1, label %cond.false.i2, label %_ZNK5boost10shared_ptrIN8QuantLib18YieldTermStructureEEptEv.exit, !prof !46

cond.false.i2:                                    ; preds = %_ZNK5boost10shared_ptrIN8QuantLib30GeneralizedBlackScholesProcessEEptEv.exit
  tail call void @_ZN5boost16assertion_failedEPKcS1_S1_l(ptr noundef nonnull @.str.9, ptr noundef nonnull @__PRETTY_FUNCTION__._ZNK5boost10shared_ptrIN8QuantLib18YieldTermStructureEEptEv, ptr noundef nonnull @.str.10, i64 noundef 784)
  %.pre.i3 = load ptr, ptr %call3, align 8, !tbaa !81
  br label %_ZNK5boost10shared_ptrIN8QuantLib18YieldTermStructureEEptEv.exit

_ZNK5boost10shared_ptrIN8QuantLib18YieldTermStructureEEptEv.exit: ; preds = %_ZNK5boost10shared_ptrIN8QuantLib30GeneralizedBlackScholesProcessEEptEv.exit, %cond.false.i2
  %3 = phi ptr [ %2, %_ZNK5boost10shared_ptrIN8QuantLib30GeneralizedBlackScholesProcessEEptEv.exit ], [ %.pre.i3, %cond.false.i2 ]
  call void @_ZNK8QuantLib18YieldTermStructure8zeroRateEdNS_11CompoundingENS_9FrequencyEb(ptr dead_on_unwind nonnull writable sret(%"class.QuantLib::InterestRate") align 8 %ref.tmp, ptr noundef nonnull align 8 dereferenceable(152) %3, double noundef %t, i32 noundef 2, i32 noundef -1, i1 noundef zeroext false)
  %4 = load double, ptr %ref.tmp, align 8, !tbaa !83
  %pn.i.i.i = getelementptr inbounds nuw i8, ptr %ref.tmp, i64 16
  %5 = load ptr, ptr %pn.i.i.i, align 8, !tbaa !37
  %cmp.not.i.i.i.i = icmp eq ptr %5, null
  br i1 %cmp.not.i.i.i.i, label %_ZN8QuantLib12InterestRateD2Ev.exit, label %if.then.i.i.i.i

if.then.i.i.i.i:                                  ; preds = %_ZNK5boost10shared_ptrIN8QuantLib18YieldTermStructureEEptEv.exit
  %use_count_.i.i.i.i.i = getelementptr inbounds nuw i8, ptr %5, i64 8
  %6 = atomicrmw sub ptr %use_count_.i.i.i.i.i, i32 1 acq_rel, align 4
  %cmp.i.i.i.i.i = icmp eq i32 %6, 1
  br i1 %cmp.i.i.i.i.i, label %if.then.i.i.i.i.i, label %_ZN8QuantLib12InterestRateD2Ev.exit

if.then.i.i.i.i.i:                                ; preds = %if.then.i.i.i.i
  %vtable.i.i.i.i.i = load ptr, ptr %5, align 8, !tbaa !35
  %vfn.i.i.i.i.i = getelementptr inbounds i8, ptr %vtable.i.i.i.i.i, i64 16
  %7 = load ptr, ptr %vfn.i.i.i.i.i, align 8
  invoke void %7(ptr noundef nonnull align 8 dereferenceable(16) %5)
          to label %.noexc.i.i.i.i unwind label %terminate.lpad.i.i.i.i

.noexc.i.i.i.i:                                   ; preds = %if.then.i.i.i.i.i
  %weak_count_.i.i.i.i.i.i = getelementptr inbounds nuw i8, ptr %5, i64 12
  %8 = atomicrmw sub ptr %weak_count_.i.i.i.i.i.i, i32 1 acq_rel, align 4
  %cmp.i.i.i.i.i.i = icmp eq i32 %8, 1
  br i1 %cmp.i.i.i.i.i.i, label %if.then.i.i.i.i.i.i, label %_ZN8QuantLib12InterestRateD2Ev.exit

if.then.i.i.i.i.i.i:                              ; preds = %.noexc.i.i.i.i
  %vtable.i.i.i.i.i.i = load ptr, ptr %5, align 8, !tbaa !35
  %vfn.i.i.i.i.i.i = getelementptr inbounds i8, ptr %vtable.i.i.i.i.i.i, i64 24
  %9 = load ptr, ptr %vfn.i.i.i.i.i.i, align 8
  invoke void %9(ptr noundef nonnull align 8 dereferenceable(16) %5)
          to label %_ZN8QuantLib12InterestRateD2Ev.exit unwind label %terminate.lpad.i.i.i.i

terminate.lpad.i.i.i.i:                           ; preds = %if.then.i.i.i.i.i.i, %if.then.i.i.i.i.i
  %10 = landingpad { ptr, i32 }
          catch ptr null
  %11 = extractvalue { ptr, i32 } %10, 0
  call void @__clang_call_terminate(ptr %11) #26
  unreachable

_ZN8QuantLib12InterestRateD2Ev.exit:              ; preds = %_ZNK5boost10shared_ptrIN8QuantLib18YieldTermStructureEEptEv.exit, %if.then.i.i.i.i, %.noexc.i.i.i.i, %if.then.i.i.i.i.i.i
  call void @llvm.lifetime.end.p0(i64 40, ptr nonnull %ref.tmp) #25
  ret double %4
}